; Function Attrs: nofree norecurse nosync nounwind null_pointer_is_valid sspstrong memory(argmem: read) uwtable
define internal i32 @gssapi_oid_hash(ptr noundef readonly captures(none) %0) #4 {
  %2 = load i8, ptr %0, align 1
  %.not9 = icmp eq i8 %2, 0
  br i1 %.not9, label %._crit_edge, label %.lr.ph

.lr.ph:                                           ; preds = %1, %.lr.ph
  %3 = phi i8 [ %9, %.lr.ph ], [ %2, %1 ]
  %.011 = phi i32 [ %6, %.lr.ph ], [ 0, %1 ]
  %.0710 = phi i32 [ %5, %.lr.ph ], [ 0, %1 ]
  %4 = sext i8 %3 to i32
  %5 = add i32 %.0710, %4
  %6 = add i32 %.011, 1
  %7 = zext i32 %6 to i64
  %8 = getelementptr i8, ptr %0, i64 %7
  %9 = load i8, ptr %8, align 1
  %.not = icmp eq i8 %9, 0
  br i1 %.not, label %._crit_edge, label %.lr.ph, !llvm.loop !6

._crit_edge:                                      ; preds = %.lr.ph, %1
  %.07.lcssa = phi i32 [ 0, %1 ], [ %5, %.lr.ph ]
  ret i32 %.07.lcssa
}